target datalayout = "e-m:e-p270:32:32-p271:32:32-p272:64:64-i64:64-i128:128-f80:128-n8:16:32:64-S128"
target triple = "x86_64-pc-linux-gnu"

%struct.prov_aes_ocb_ctx_st = type { %struct.prov_cipher_ctx_st, %union.anon.0, %union.anon.1, %struct.ocb128_context, i32, i8, i64, i64, i64, [16 x i8], [16 x i8], [16 x i8] }
%struct.prov_cipher_ctx_st = type { [16 x i8], [16 x i8], [16 x i8], ptr, %union.anon, i32, i64, i64, i64, i64, i32, i8, i32, ptr, i32, i64, i32, i64, i32, ptr, ptr, ptr }
%union.anon = type { ptr }
%union.anon.0 = type { double, [240 x i8] }
%union.anon.1 = type { double, [240 x i8] }
%struct.ocb128_context = type { ptr, ptr, ptr, ptr, ptr, i64, i64, %union.OCB_BLOCK, %union.OCB_BLOCK, ptr, %struct.anon }
%union.OCB_BLOCK = type { [2 x i64] }
%struct.anon = type { i64, i64, %union.OCB_BLOCK, %union.OCB_BLOCK, %union.OCB_BLOCK, %union.OCB_BLOCK }

@.str = private unnamed_addr constant [62 x i8] c"../openssl/providers/implementations/ciphers/cipher_aes_ocb.c\00", align 1
@__func__.aes_ocb_cipher = private unnamed_addr constant [15 x i8] c"aes_ocb_cipher\00", align 1

; Function Attrs: inlinehint nounwind uwtable
define internal i32 @aes_generic_ocb_cipher(ptr noundef %0, ptr noundef %1, ptr noundef %2, i64 noundef %3) #3 {
  %5 = alloca i32, align 4
  %6 = alloca ptr, align 8
  %7 = alloca ptr, align 8
  %8 = alloca ptr, align 8
  %9 = alloca i64, align 8
  store ptr %0, ptr %6, align 8, !tbaa !15
  store ptr %1, ptr %7, align 8, !tbaa !7
  store ptr %2, ptr %8, align 8, !tbaa !7
  store i64 %3, ptr %9, align 8, !tbaa !9
  %10 = load ptr, ptr %6, align 8, !tbaa !15
  %11 = getelementptr inbounds nuw %struct.prov_aes_ocb_ctx_st, ptr %10, i32 0, i32 0
  %12 = getelementptr inbounds nuw %struct.prov_cipher_ctx_st, ptr %11, i32 0, i32 11
  %13 = load i8, ptr %12, align 4
  %14 = lshr i8 %13, 1
  %15 = and i8 %14, 1
  %16 = zext i8 %15 to i32
  %17 = icmp ne i32 %16, 0
  br i1 %17, label %18, label %28

18:                                               ; preds = %4
  %19 = load ptr, ptr %6, align 8, !tbaa !15
  %20 = getelementptr inbounds nuw %struct.prov_aes_ocb_ctx_st, ptr %19, i32 0, i32 3
  %21 = load ptr, ptr %7, align 8, !tbaa !7
  %22 = load ptr, ptr %8, align 8, !tbaa !7
  %23 = load i64, ptr %9, align 8, !tbaa !9
  %24 = call i32 @CRYPTO_ocb128_encrypt(ptr noundef %20, ptr noundef %21, ptr noundef %22, i64 noundef %23)
  %25 = icmp ne i32 %24, 0
  br i1 %25, label %27, label %26

26:                                               ; preds = %18
  store i32 0, ptr %5, align 4
  br label %39

27:                                               ; preds = %18
  br label %38

28:                                               ; preds = %4
  %29 = load ptr, ptr %6, align 8, !tbaa !15
  %30 = getelementptr inbounds nuw %struct.prov_aes_ocb_ctx_st, ptr %29, i32 0, i32 3
  %31 = load ptr, ptr %7, align 8, !tbaa !7
  %32 = load ptr, ptr %8, align 8, !tbaa !7
  %33 = load i64, ptr %9, align 8, !tbaa !9
  %34 = call i32 @CRYPTO_ocb128_decrypt(ptr noundef %30, ptr noundef %31, ptr noundef %32, i64 noundef %33)
  %35 = icmp ne i32 %34, 0
  br i1 %35, label %37, label %36

36:                                               ; preds = %28
  store i32 0, ptr %5, align 4
  br label %39

37:                                               ; preds = %28
  br label %38

38:                                               ; preds = %37, %27
  store i32 1, ptr %5, align 4
  br label %39

39:                                               ; preds = %38, %36, %26
  %40 = load i32, ptr %5, align 4
  ret i32 %40
}

; Function Attrs: nounwind uwtable
define internal i32 @aes_ocb_cipher(ptr noundef %0, ptr noundef %1, ptr noundef %2, i64 noundef %3, ptr noundef %4, i64 noundef %5) #0 {
  %7 = alloca i32, align 4
  %8 = alloca ptr, align 8
  %9 = alloca ptr, align 8
  %10 = alloca ptr, align 8
  %11 = alloca i64, align 8
  %12 = alloca ptr, align 8
  %13 = alloca i64, align 8
  %14 = alloca ptr, align 8
  %15 = alloca i32, align 4
  store ptr %0, ptr %8, align 8, !tbaa !3
  store ptr %1, ptr %9, align 8, !tbaa !7
  store ptr %2, ptr %10, align 8, !tbaa !13
  store i64 %3, ptr %11, align 8, !tbaa !9
  store ptr %4, ptr %12, align 8, !tbaa !7
  store i64 %5, ptr %13, align 8, !tbaa !9
  call void @llvm.lifetime.start.p0(i64 8, ptr %14) #5
  %16 = load ptr, ptr %8, align 8, !tbaa !3
  store ptr %16, ptr %14, align 8, !tbaa !15
  %17 = call i32 @ossl_prov_is_running()
  %18 = icmp ne i32 %17, 0
  br i1 %18, label %20, label %19

19:                                               ; preds = %6
  store i32 0, ptr %7, align 4
  store i32 1, ptr %15, align 4
  br label %36

20:                                               ; preds = %6
  %21 = load i64, ptr %11, align 8, !tbaa !9
  %22 = load i64, ptr %13, align 8, !tbaa !9
  %23 = icmp ult i64 %21, %22
  br i1 %23, label %24, label %25

24:                                               ; preds = %20
  call void @ERR_new()
  call void @ERR_set_debug(ptr noundef @.str, i32 noundef 515, ptr noundef @__func__.aes_ocb_cipher)
  call void (i32, i32, ptr, ...) @ERR_set_error(i32 noundef 57, i32 noundef 106, ptr noundef null)
  store i32 0, ptr %7, align 4
  store i32 1, ptr %15, align 4
  br label %36

25:                                               ; preds = %20
  %26 = load ptr, ptr %14, align 8, !tbaa !15
  %27 = load ptr, ptr %12, align 8, !tbaa !7
  %28 = load ptr, ptr %9, align 8, !tbaa !7
  %29 = load i64, ptr %13, align 8, !tbaa !9
  %30 = call i32 @aes_generic_ocb_cipher(ptr noundef %26, ptr noundef %27, ptr noundef %28, i64 noundef %29)
  %31 = icmp ne i32 %30, 0
  br i1 %31, label %33, label %32

32:                                               ; preds = %25
  call void @ERR_new()
  call void @ERR_set_debug(ptr noundef @.str, i32 noundef 520, ptr noundef @__func__.aes_ocb_cipher)
  call void (i32, i32, ptr, ...) @ERR_set_error(i32 noundef 57, i32 noundef 102, ptr noundef null)
  store i32 0, ptr %7, align 4
  store i32 1, ptr %15, align 4
  br label %36

33:                                               ; preds = %25
  %34 = load i64, ptr %13, align 8, !tbaa !9
  %35 = load ptr, ptr %10, align 8, !tbaa !13
  store i64 %34, ptr %35, align 8, !tbaa !9
  store i32 1, ptr %7, align 4
  store i32 1, ptr %15, align 4
  br label %36

36:                                               ; preds = %33, %32, %24, %19
  call void @llvm.lifetime.end.p0(i64 8, ptr %14) #5
  %37 = load i32, ptr %7, align 4
  ret i32 %37
}