; Function Attrs: nounwind uwtable
define internal range(i32 0, 2) i32 @aes_ocb_cipher(ptr noundef %0, ptr noundef %1, ptr noundef writeonly captures(none) %2, i64 noundef %3, ptr noundef %4, i64 noundef %5) #0 {
  %7 = tail call i32 @ossl_prov_is_running() #7
  %.not = icmp eq i32 %7, 0
  br i1 %.not, label %21, label %8

8:                                                ; preds = %6
  %9 = icmp ult i64 %3, %5
  br i1 %9, label %10, label %11

10:                                               ; preds = %8
  tail call void @ERR_new() #7
  tail call void @ERR_set_debug(ptr noundef nonnull @.str, i32 noundef 515, ptr noundef nonnull @__func__.aes_ocb_cipher) #7
  tail call void (i32, i32, ptr, ...) @ERR_set_error(i32 noundef 57, i32 noundef 106, ptr noundef null) #7
  br label %21

11:                                               ; preds = %8
  %12 = getelementptr inbounds nuw i8, ptr %0, i64 108
  %13 = load i8, ptr %12, align 4
  %14 = and i8 %13, 2
  %.not.i = icmp eq i8 %14, 0
  %15 = getelementptr inbounds nuw i8, ptr %0, i64 688
  br i1 %.not.i, label %18, label %16

16:                                               ; preds = %11
  %17 = tail call i32 @CRYPTO_ocb128_encrypt(ptr noundef nonnull %15, ptr noundef %4, ptr noundef %1, i64 noundef %5) #7
  %.not10.i = icmp eq i32 %17, 0
  br i1 %.not10.i, label %20, label %aes_generic_ocb_cipher.exit

18:                                               ; preds = %11
  %19 = tail call i32 @CRYPTO_ocb128_decrypt(ptr noundef nonnull %15, ptr noundef %4, ptr noundef %1, i64 noundef %5) #7
  %.not9.i = icmp eq i32 %19, 0
  br i1 %.not9.i, label %20, label %aes_generic_ocb_cipher.exit

20:                                               ; preds = %16, %18
  tail call void @ERR_new() #7
  tail call void @ERR_set_debug(ptr noundef nonnull @.str, i32 noundef 520, ptr noundef nonnull @__func__.aes_ocb_cipher) #7
  tail call void (i32, i32, ptr, ...) @ERR_set_error(i32 noundef 57, i32 noundef 102, ptr noundef null) #7
  br label %21

aes_generic_ocb_cipher.exit:                      ; preds = %18, %16
  store i64 %5, ptr %2, align 8, !tbaa !19
  br label %21

21:                                               ; preds = %6, %aes_generic_ocb_cipher.exit, %20, %10
  %.0 = phi i32 [ 0, %10 ], [ 1, %aes_generic_ocb_cipher.exit ], [ 0, %20 ], [ 0, %6 ]
  ret i32 %.0
}